target datalayout = "e-m:e-p270:32:32-p271:32:32-p272:64:64-i64:64-i128:128-f80:128-n8:16:32:64-S128"
target triple = "x86_64-pc-linux-gnu"

%struct.netlink_net_dm_info = type { ptr, i16 }
%struct._packet_info = type { ptr, ptr, i32, i32, %struct.nstime_t, %struct.nstime_t, %struct.nstime_t, i8, ptr, ptr, ptr, ptr, %struct._address, %struct._address, %struct._address, %struct._address, %struct._address, %struct._address, i32, ptr, i8, [3 x i8], %struct.anon, i32, i32, i32, i32, ptr, i8, ptr, ptr, i16, i16, i32, i32, i16, i32, i32, ptr, ptr, ptr, i8, i8, i16, i16, i16, i32, i16, i16, ptr, ptr, ptr, ptr, ptr, i32, i32 }
%struct.nstime_t = type { i64, i32 }
%struct._address = type { i32, i32, ptr, ptr }
%struct.anon = type { i8, [3 x i8] }
%struct.genl_info_t = type { ptr, ptr, i8 }

@hf_net_dm_commands = internal global i32 0, align 4
@hf_net_dm_attrs = internal global i32 0, align 4
@ett_net_dm = internal global i32 0, align 4
@ett_net_dm_attrs = internal global i32 0, align 4
@.str.45 = private unnamed_addr constant [7 x i8] c"net_dm\00", align 1
@proto_netlink_net_dm = internal global i32 0, align 4
@.str.84 = private unnamed_addr constant [29 x i8] c"%s:%u: failed assertion \22%s\22\00", align 1
@.str.85 = private unnamed_addr constant [40 x i8] c"epan/dissectors/packet-netlink-net_dm.c\00", align 1
@.str.86 = private unnamed_addr constant [10 x i8] c"genl_info\00", align 1

; Function Attrs: null_pointer_is_valid sspstrong uwtable
define internal i32 @dissect_netlink_net_dm(ptr noundef %0, ptr noundef %1, ptr noundef %2, ptr noundef %3) #0 {
  %5 = alloca i32, align 4
  %6 = alloca ptr, align 8
  %7 = alloca ptr, align 8
  %8 = alloca ptr, align 8
  %9 = alloca ptr, align 8
  %10 = alloca ptr, align 8
  %11 = alloca %struct.netlink_net_dm_info, align 8
  %12 = alloca ptr, align 8
  %13 = alloca ptr, align 8
  %14 = alloca i32, align 4
  %15 = alloca i32, align 4
  store ptr %0, ptr %6, align 8
  store ptr %1, ptr %7, align 8
  store ptr %2, ptr %8, align 8
  store ptr %3, ptr %9, align 8
  call void @llvm.lifetime.start.p0(i64 8, ptr %10) #4
  %16 = load ptr, ptr %9, align 8
  store ptr %16, ptr %10, align 8
  call void @llvm.lifetime.start.p0(i64 16, ptr %11) #4
  call void @llvm.lifetime.start.p0(i64 8, ptr %12) #4
  call void @llvm.lifetime.start.p0(i64 8, ptr %13) #4
  call void @llvm.lifetime.start.p0(i64 4, ptr %14) #4
  %17 = load ptr, ptr %10, align 8
  %18 = icmp ne ptr %17, null
  br i1 %18, label %19, label %20

19:                                               ; preds = %4
  br label %22

20:                                               ; preds = %4
  call void (ptr, ...) @proto_report_dissector_bug(ptr noundef @.str.84, ptr noundef @.str.85, i32 noundef 376, ptr noundef @.str.86) #5
  unreachable

21:                                               ; No predecessors!
  br label %22

22:                                               ; preds = %21, %19
  %23 = load ptr, ptr %7, align 8
  %24 = getelementptr inbounds nuw %struct._packet_info, ptr %23, i32 0, i32 1
  %25 = load ptr, ptr %24, align 8
  call void @col_set_str(ptr noundef %25, i32 noundef 35, ptr noundef @.str.45)
  %26 = load ptr, ptr %7, align 8
  %27 = getelementptr inbounds nuw %struct._packet_info, ptr %26, i32 0, i32 1
  %28 = load ptr, ptr %27, align 8
  call void @col_clear(ptr noundef %28, i32 noundef 25)
  %29 = load ptr, ptr %6, align 8
  %30 = load ptr, ptr %10, align 8
  %31 = load ptr, ptr %10, align 8
  %32 = getelementptr inbounds nuw %struct.genl_info_t, ptr %31, i32 0, i32 0
  %33 = load ptr, ptr %32, align 8
  %34 = load i32, ptr @hf_net_dm_commands, align 4
  %35 = call i32 @dissect_genl_header(ptr noundef %29, ptr noundef %30, ptr noundef %33, i32 noundef %34)
  store i32 %35, ptr %14, align 4
  %36 = load ptr, ptr %6, align 8
  %37 = load i32, ptr %14, align 4
  %38 = call i32 @tvb_reported_length_remaining(ptr noundef %36, i32 noundef %37)
  %39 = icmp ne i32 %38, 0
  br i1 %39, label %42, label %40

40:                                               ; preds = %22
  %41 = load i32, ptr %14, align 4
  store i32 %41, ptr %5, align 4
  store i32 1, ptr %15, align 4
  br label %64

42:                                               ; preds = %22
  %43 = load ptr, ptr %8, align 8
  %44 = load i32, ptr @proto_netlink_net_dm, align 4
  %45 = load ptr, ptr %6, align 8
  %46 = load i32, ptr %14, align 4
  %47 = call ptr @proto_tree_add_item(ptr noundef %43, i32 noundef %44, ptr noundef %45, i32 noundef %46, i32 noundef -1, i32 noundef 0)
  store ptr %47, ptr %13, align 8
  %48 = load ptr, ptr %13, align 8
  %49 = load i32, ptr @ett_net_dm, align 4
  %50 = call ptr @proto_item_add_subtree(ptr noundef %48, i32 noundef %49)
  store ptr %50, ptr %12, align 8
  %51 = load ptr, ptr %7, align 8
  %52 = getelementptr inbounds nuw %struct.netlink_net_dm_info, ptr %11, i32 0, i32 0
  store ptr %51, ptr %52, align 8
  %53 = getelementptr inbounds nuw %struct.netlink_net_dm_info, ptr %11, i32 0, i32 1
  store i16 0, ptr %53, align 8
  %54 = load ptr, ptr %6, align 8
  %55 = load i32, ptr @hf_net_dm_attrs, align 4
  %56 = load i32, ptr @ett_net_dm_attrs, align 4
  %57 = load ptr, ptr %10, align 8
  %58 = getelementptr inbounds nuw %struct.genl_info_t, ptr %57, i32 0, i32 0
  %59 = load ptr, ptr %58, align 8
  %60 = load ptr, ptr %12, align 8
  %61 = load i32, ptr %14, align 4
  %62 = call i32 @dissect_netlink_attributes_to_end(ptr noundef %54, i32 noundef %55, i32 noundef %56, ptr noundef %11, ptr noundef %59, ptr noundef %60, i32 noundef %61, ptr noundef @dissect_net_dm_attrs)
  store i32 %62, ptr %14, align 4
  %63 = load i32, ptr %14, align 4
  store i32 %63, ptr %5, align 4
  store i32 1, ptr %15, align 4
  br label %64

64:                                               ; preds = %42, %40
  call void @llvm.lifetime.end.p0(i64 4, ptr %14) #4
  call void @llvm.lifetime.end.p0(i64 8, ptr %13) #4
  call void @llvm.lifetime.end.p0(i64 8, ptr %12) #4
  call void @llvm.lifetime.end.p0(i64 16, ptr %11) #4
  call void @llvm.lifetime.end.p0(i64 8, ptr %10) #4
  %65 = load i32, ptr %5, align 4
  ret i32 %65
}