; Function Attrs: null_pointer_is_valid sspstrong uwtable
define internal i32 @dissect_netlink_net_dm(ptr noundef %0, ptr noundef %1, ptr noundef %2, ptr noundef %3) #0 {
  %5 = alloca %struct.netlink_net_dm_info, align 8
  call void @llvm.lifetime.start.p0(i64 16, ptr nonnull %5) #4
  %.not = icmp eq ptr %3, null
  br i1 %.not, label %6, label %7

6:                                                ; preds = %4
  tail call void (ptr, ...) @proto_report_dissector_bug(ptr noundef nonnull @.str.84, ptr noundef nonnull @.str.85, i32 noundef 376, ptr noundef nonnull @.str.86) #5
  unreachable

7:                                                ; preds = %4
  %8 = getelementptr inbounds nuw i8, ptr %1, i64 8
  %9 = load ptr, ptr %8, align 8
  tail call void @col_set_str(ptr noundef %9, i32 noundef 35, ptr noundef nonnull @.str.45)
  %10 = load ptr, ptr %8, align 8
  tail call void @col_clear(ptr noundef %10, i32 noundef 25)
  %11 = load ptr, ptr %3, align 8
  %12 = load i32, ptr @hf_net_dm_commands, align 4
  %13 = tail call i32 @dissect_genl_header(ptr noundef %0, ptr noundef nonnull %3, ptr noundef %11, i32 noundef %12)
  %14 = tail call i32 @tvb_reported_length_remaining(ptr noundef %0, i32 noundef %13)
  %.not21 = icmp eq i32 %14, 0
  br i1 %.not21, label %25, label %15

15:                                               ; preds = %7
  %16 = load i32, ptr @proto_netlink_net_dm, align 4
  %17 = tail call ptr @proto_tree_add_item(ptr noundef %2, i32 noundef %16, ptr noundef %0, i32 noundef %13, i32 noundef -1, i32 noundef 0)
  %18 = load i32, ptr @ett_net_dm, align 4
  %19 = tail call ptr @proto_item_add_subtree(ptr noundef %17, i32 noundef %18)
  store ptr %1, ptr %5, align 8
  %20 = getelementptr inbounds nuw i8, ptr %5, i64 8
  store i16 0, ptr %20, align 8
  %21 = load i32, ptr @hf_net_dm_attrs, align 4
  %22 = load i32, ptr @ett_net_dm_attrs, align 4
  %23 = load ptr, ptr %3, align 8
  %24 = call i32 @dissect_netlink_attributes_to_end(ptr noundef %0, i32 noundef %21, i32 noundef %22, ptr noundef nonnull %5, ptr noundef %23, ptr noundef %19, i32 noundef %13, ptr noundef nonnull @dissect_net_dm_attrs)
  br label %25

25:                                               ; preds = %7, %15
  %.0 = phi i32 [ %24, %15 ], [ %13, %7 ]
  call void @llvm.lifetime.end.p0(i64 16, ptr nonnull %5) #4
  ret i32 %.0
}